;--------------------------------------------------------
; File Created by SDCC : free open source ANSI-C Compiler
; Version 2.9.0 #5416 (Feb  3 2010) (UNIX)
; This file was generated Thu Nov 15 12:09:27 2012
;--------------------------------------------------------
	.module rauchmelder
	.optsdcc -mmcs51 --model-small
	
;--------------------------------------------------------
; Public variables in this module
;--------------------------------------------------------
	.globl _main
	.globl _P3_1
	.globl _P3_0
	.globl _P1_7
	.globl _P1_6
	.globl _P1_5
	.globl _P1_4
	.globl _P1_3
	.globl _P1_2
	.globl _P1_1
	.globl _P1_0
	.globl _P0_7
	.globl _P0_6
	.globl _P0_5
	.globl _P0_4
	.globl _P0_3
	.globl _P0_2
	.globl _P0_1
	.globl _P0_0
	.globl _I2CON_0
	.globl _I2CON_2
	.globl _I2CON_3
	.globl _I2CON_4
	.globl _I2CON_5
	.globl _I2CON_6
	.globl _SCON_7
	.globl _SCON_6
	.globl _SCON_5
	.globl _SCON_4
	.globl _SCON_3
	.globl _SCON_2
	.globl _SCON_1
	.globl _SCON_0
	.globl _IP0_0
	.globl _IP0_1
	.globl _IP0_2
	.globl _IP0_3
	.globl _IP0_4
	.globl _IP0_5
	.globl _IP0_6
	.globl _IP1_0
	.globl _IP1_1
	.globl _IP1_2
	.globl _IP1_6
	.globl _IEN1_0
	.globl _IEN1_1
	.globl _IEN1_2
	.globl _IEN0_0
	.globl _IEN0_1
	.globl _IEN0_2
	.globl _IEN0_3
	.globl _IEN0_4
	.globl _IEN0_5
	.globl _IEN0_6
	.globl _IEN0_7
	.globl _TCON_0
	.globl _TCON_1
	.globl _TCON_2
	.globl _TCON_3
	.globl _TCON_4
	.globl _TCON_5
	.globl _TCON_6
	.globl _TCON_7
	.globl _PSW_7
	.globl _PSW_6
	.globl _PSW_5
	.globl _PSW_4
	.globl _PSW_3
	.globl _PSW_2
	.globl _PSW_1
	.globl _PSW_0
	.globl _IEN1
	.globl _IP0H
	.globl _WFEED2
	.globl _WFEED1
	.globl _WDL
	.globl _WDCON
	.globl _TRIM
	.globl _TAMOD
	.globl _SSTAT
	.globl _RTCL
	.globl _RTCH
	.globl _RTCCON
	.globl _RSTSRC
	.globl _PT0AD
	.globl _PCONA
	.globl _P3M2
	.globl _P3M1
	.globl _P1M2
	.globl _P1M1
	.globl _P0M2
	.globl _P0M1
	.globl _KBPATN
	.globl _KBMASK
	.globl _KBCON
	.globl _IP1H
	.globl _IP1
	.globl _I2STAT
	.globl _I2SCLL
	.globl _I2SCLH
	.globl _I2DAT
	.globl _I2CON
	.globl _I2ADR
	.globl _FMDATA
	.globl _FMCON
	.globl _FMADRL
	.globl _FMADRH
	.globl _DIVM
	.globl _CMP2
	.globl _CMP1
	.globl _BRGCON
	.globl _BRGR1
	.globl _BRGR0
	.globl _SADEN
	.globl _SADDR
	.globl _AUXR1
	.globl _SBUF
	.globl _SCON
	.globl _IP0
	.globl _IEN0
	.globl _TH1
	.globl _TH0
	.globl _TL1
	.globl _TL0
	.globl _TMOD
	.globl _TCON
	.globl _PCON
	.globl _DPH
	.globl _DPL
	.globl _SP
	.globl _B
	.globl _ACC
	.globl _PSW
	.globl _P3
	.globl _P1
	.globl _P0
;--------------------------------------------------------
; special function registers
;--------------------------------------------------------
	.area RSEG    (DATA)
G$P0$0$0 == 0x0080
_P0	=	0x0080
G$P1$0$0 == 0x0090
_P1	=	0x0090
G$P3$0$0 == 0x00b0
_P3	=	0x00b0
G$PSW$0$0 == 0x00d0
_PSW	=	0x00d0
G$ACC$0$0 == 0x00e0
_ACC	=	0x00e0
G$B$0$0 == 0x00f0
_B	=	0x00f0
G$SP$0$0 == 0x0081
_SP	=	0x0081
G$DPL$0$0 == 0x0082
_DPL	=	0x0082
G$DPH$0$0 == 0x0083
_DPH	=	0x0083
G$PCON$0$0 == 0x0087
_PCON	=	0x0087
G$TCON$0$0 == 0x0088
_TCON	=	0x0088
G$TMOD$0$0 == 0x0089
_TMOD	=	0x0089
G$TL0$0$0 == 0x008a
_TL0	=	0x008a
G$TL1$0$0 == 0x008b
_TL1	=	0x008b
G$TH0$0$0 == 0x008c
_TH0	=	0x008c
G$TH1$0$0 == 0x008d
_TH1	=	0x008d
G$IEN0$0$0 == 0x00a8
_IEN0	=	0x00a8
G$IP0$0$0 == 0x00b8
_IP0	=	0x00b8
G$SCON$0$0 == 0x0098
_SCON	=	0x0098
G$SBUF$0$0 == 0x0099
_SBUF	=	0x0099
G$AUXR1$0$0 == 0x00a2
_AUXR1	=	0x00a2
G$SADDR$0$0 == 0x00a9
_SADDR	=	0x00a9
G$SADEN$0$0 == 0x00b9
_SADEN	=	0x00b9
G$BRGR0$0$0 == 0x00be
_BRGR0	=	0x00be
G$BRGR1$0$0 == 0x00bf
_BRGR1	=	0x00bf
G$BRGCON$0$0 == 0x00bd
_BRGCON	=	0x00bd
G$CMP1$0$0 == 0x00ac
_CMP1	=	0x00ac
G$CMP2$0$0 == 0x00ad
_CMP2	=	0x00ad
G$DIVM$0$0 == 0x0095
_DIVM	=	0x0095
G$FMADRH$0$0 == 0x00e7
_FMADRH	=	0x00e7
G$FMADRL$0$0 == 0x00e6
_FMADRL	=	0x00e6
G$FMCON$0$0 == 0x00e4
_FMCON	=	0x00e4
G$FMDATA$0$0 == 0x00e5
_FMDATA	=	0x00e5
G$I2ADR$0$0 == 0x00db
_I2ADR	=	0x00db
G$I2CON$0$0 == 0x00d8
_I2CON	=	0x00d8
G$I2DAT$0$0 == 0x00da
_I2DAT	=	0x00da
G$I2SCLH$0$0 == 0x00dd
_I2SCLH	=	0x00dd
G$I2SCLL$0$0 == 0x00dc
_I2SCLL	=	0x00dc
G$I2STAT$0$0 == 0x00d9
_I2STAT	=	0x00d9
G$IP1$0$0 == 0x00f8
_IP1	=	0x00f8
G$IP1H$0$0 == 0x00f7
_IP1H	=	0x00f7
G$KBCON$0$0 == 0x0094
_KBCON	=	0x0094
G$KBMASK$0$0 == 0x0086
_KBMASK	=	0x0086
G$KBPATN$0$0 == 0x0093
_KBPATN	=	0x0093
G$P0M1$0$0 == 0x0084
_P0M1	=	0x0084
G$P0M2$0$0 == 0x0085
_P0M2	=	0x0085
G$P1M1$0$0 == 0x0091
_P1M1	=	0x0091
G$P1M2$0$0 == 0x0092
_P1M2	=	0x0092
G$P3M1$0$0 == 0x00b1
_P3M1	=	0x00b1
G$P3M2$0$0 == 0x00b2
_P3M2	=	0x00b2
G$PCONA$0$0 == 0x00b5
_PCONA	=	0x00b5
G$PT0AD$0$0 == 0x00f6
_PT0AD	=	0x00f6
G$RSTSRC$0$0 == 0x00df
_RSTSRC	=	0x00df
G$RTCCON$0$0 == 0x00d1
_RTCCON	=	0x00d1
G$RTCH$0$0 == 0x00d2
_RTCH	=	0x00d2
G$RTCL$0$0 == 0x00d3
_RTCL	=	0x00d3
G$SSTAT$0$0 == 0x00ba
_SSTAT	=	0x00ba
G$TAMOD$0$0 == 0x008f
_TAMOD	=	0x008f
G$TRIM$0$0 == 0x0096
_TRIM	=	0x0096
G$WDCON$0$0 == 0x00a7
_WDCON	=	0x00a7
G$WDL$0$0 == 0x00c1
_WDL	=	0x00c1
G$WFEED1$0$0 == 0x00c2
_WFEED1	=	0x00c2
G$WFEED2$0$0 == 0x00c3
_WFEED2	=	0x00c3
G$IP0H$0$0 == 0x00b7
_IP0H	=	0x00b7
G$IEN1$0$0 == 0x00e8
_IEN1	=	0x00e8
;--------------------------------------------------------
; special function bits
;--------------------------------------------------------
	.area RSEG    (DATA)
G$PSW_0$0$0 == 0x00d0
_PSW_0	=	0x00d0
G$PSW_1$0$0 == 0x00d1
_PSW_1	=	0x00d1
G$PSW_2$0$0 == 0x00d2
_PSW_2	=	0x00d2
G$PSW_3$0$0 == 0x00d3
_PSW_3	=	0x00d3
G$PSW_4$0$0 == 0x00d4
_PSW_4	=	0x00d4
G$PSW_5$0$0 == 0x00d5
_PSW_5	=	0x00d5
G$PSW_6$0$0 == 0x00d6
_PSW_6	=	0x00d6
G$PSW_7$0$0 == 0x00d7
_PSW_7	=	0x00d7
G$TCON_7$0$0 == 0x008f
_TCON_7	=	0x008f
G$TCON_6$0$0 == 0x008e
_TCON_6	=	0x008e
G$TCON_5$0$0 == 0x008d
_TCON_5	=	0x008d
G$TCON_4$0$0 == 0x008c
_TCON_4	=	0x008c
G$TCON_3$0$0 == 0x008b
_TCON_3	=	0x008b
G$TCON_2$0$0 == 0x008a
_TCON_2	=	0x008a
G$TCON_1$0$0 == 0x0089
_TCON_1	=	0x0089
G$TCON_0$0$0 == 0x0088
_TCON_0	=	0x0088
G$IEN0_7$0$0 == 0x00af
_IEN0_7	=	0x00af
G$IEN0_6$0$0 == 0x00ae
_IEN0_6	=	0x00ae
G$IEN0_5$0$0 == 0x00ad
_IEN0_5	=	0x00ad
G$IEN0_4$0$0 == 0x00ac
_IEN0_4	=	0x00ac
G$IEN0_3$0$0 == 0x00ab
_IEN0_3	=	0x00ab
G$IEN0_2$0$0 == 0x00aa
_IEN0_2	=	0x00aa
G$IEN0_1$0$0 == 0x00a9
_IEN0_1	=	0x00a9
G$IEN0_0$0$0 == 0x00a8
_IEN0_0	=	0x00a8
G$IEN1_2$0$0 == 0x00ea
_IEN1_2	=	0x00ea
G$IEN1_1$0$0 == 0x00e9
_IEN1_1	=	0x00e9
G$IEN1_0$0$0 == 0x00e8
_IEN1_0	=	0x00e8
G$IP1_6$0$0 == 0x00fe
_IP1_6	=	0x00fe
G$IP1_2$0$0 == 0x00fa
_IP1_2	=	0x00fa
G$IP1_1$0$0 == 0x00f9
_IP1_1	=	0x00f9
G$IP1_0$0$0 == 0x00f8
_IP1_0	=	0x00f8
G$IP0_6$0$0 == 0x00be
_IP0_6	=	0x00be
G$IP0_5$0$0 == 0x00bd
_IP0_5	=	0x00bd
G$IP0_4$0$0 == 0x00bc
_IP0_4	=	0x00bc
G$IP0_3$0$0 == 0x00bb
_IP0_3	=	0x00bb
G$IP0_2$0$0 == 0x00ba
_IP0_2	=	0x00ba
G$IP0_1$0$0 == 0x00b9
_IP0_1	=	0x00b9
G$IP0_0$0$0 == 0x00b8
_IP0_0	=	0x00b8
G$SCON_0$0$0 == 0x0098
_SCON_0	=	0x0098
G$SCON_1$0$0 == 0x0099
_SCON_1	=	0x0099
G$SCON_2$0$0 == 0x009a
_SCON_2	=	0x009a
G$SCON_3$0$0 == 0x009b
_SCON_3	=	0x009b
G$SCON_4$0$0 == 0x009c
_SCON_4	=	0x009c
G$SCON_5$0$0 == 0x009d
_SCON_5	=	0x009d
G$SCON_6$0$0 == 0x009e
_SCON_6	=	0x009e
G$SCON_7$0$0 == 0x009f
_SCON_7	=	0x009f
G$I2CON_6$0$0 == 0x00de
_I2CON_6	=	0x00de
G$I2CON_5$0$0 == 0x00dd
_I2CON_5	=	0x00dd
G$I2CON_4$0$0 == 0x00dc
_I2CON_4	=	0x00dc
G$I2CON_3$0$0 == 0x00db
_I2CON_3	=	0x00db
G$I2CON_2$0$0 == 0x00da
_I2CON_2	=	0x00da
G$I2CON_0$0$0 == 0x00d8
_I2CON_0	=	0x00d8
G$P0_0$0$0 == 0x0080
_P0_0	=	0x0080
G$P0_1$0$0 == 0x0081
_P0_1	=	0x0081
G$P0_2$0$0 == 0x0082
_P0_2	=	0x0082
G$P0_3$0$0 == 0x0083
_P0_3	=	0x0083
G$P0_4$0$0 == 0x0084
_P0_4	=	0x0084
G$P0_5$0$0 == 0x0085
_P0_5	=	0x0085
G$P0_6$0$0 == 0x0086
_P0_6	=	0x0086
G$P0_7$0$0 == 0x0087
_P0_7	=	0x0087
G$P1_0$0$0 == 0x0090
_P1_0	=	0x0090
G$P1_1$0$0 == 0x0091
_P1_1	=	0x0091
G$P1_2$0$0 == 0x0092
_P1_2	=	0x0092
G$P1_3$0$0 == 0x0093
_P1_3	=	0x0093
G$P1_4$0$0 == 0x0094
_P1_4	=	0x0094
G$P1_5$0$0 == 0x0095
_P1_5	=	0x0095
G$P1_6$0$0 == 0x0096
_P1_6	=	0x0096
G$P1_7$0$0 == 0x0097
_P1_7	=	0x0097
G$P3_0$0$0 == 0x00b0
_P3_0	=	0x00b0
G$P3_1$0$0 == 0x00b1
_P3_1	=	0x00b1
;--------------------------------------------------------
; overlayable register banks
;--------------------------------------------------------
	.area REG_BANK_0	(REL,OVR,DATA)
	.ds 8
;--------------------------------------------------------
; internal ram data
;--------------------------------------------------------
	.area DSEG    (DATA)
;--------------------------------------------------------
; overlayable items in internal ram 
;--------------------------------------------------------
	.area OSEG    (OVR,DATA)
;--------------------------------------------------------
; Stack segment in internal ram 
;--------------------------------------------------------
	.area	SSEG	(DATA)
__start__stack:
	.ds	1

;--------------------------------------------------------
; indirectly addressable internal ram data
;--------------------------------------------------------
	.area ISEG    (DATA)
;--------------------------------------------------------
; absolute internal ram data
;--------------------------------------------------------
	.area IABS    (ABS,DATA)
	.area IABS    (ABS,DATA)
;--------------------------------------------------------
; bit data
;--------------------------------------------------------
	.area BSEG    (BIT)
;--------------------------------------------------------
; paged external ram data
;--------------------------------------------------------
	.area PSEG    (PAG,XDATA)
;--------------------------------------------------------
; external ram data
;--------------------------------------------------------
	.area XSEG    (XDATA)
;--------------------------------------------------------
; absolute external ram data
;--------------------------------------------------------
	.area XABS    (ABS,XDATA)
;--------------------------------------------------------
; external initialized ram data
;--------------------------------------------------------
	.area XISEG   (XDATA)
	.area HOME    (CODE)
	.area GSINIT0 (CODE)
	.area GSINIT1 (CODE)
	.area GSINIT2 (CODE)
	.area GSINIT3 (CODE)
	.area GSINIT4 (CODE)
	.area GSINIT5 (CODE)
	.area GSINIT  (CODE)
	.area GSFINAL (CODE)
	.area CSEG    (CODE)
;--------------------------------------------------------
; interrupt vector 
;--------------------------------------------------------
	.area HOME    (CODE)
__interrupt_vect:
	ljmp	__sdcc_gsinit_startup
	reti
	.ds	7
	reti
	.ds	7
	ljmp	_X1_int
	.ds	5
	ljmp	_T1_int
	.ds	5
	reti
	.ds	7
	reti
	.ds	7
	reti
	.ds	7
	ljmp	_key
;--------------------------------------------------------
; global & static initialisations
;--------------------------------------------------------
	.area HOME    (CODE)
	.area GSINIT  (CODE)
	.area GSFINAL (CODE)
	.area GSINIT  (CODE)
	.globl __sdcc_gsinit_startup
	.globl __sdcc_program_startup
	.globl __start__stack
	.globl __mcs51_genXINIT
	.globl __mcs51_genXRAMCLEAR
	.globl __mcs51_genRAMCLEAR
	.area GSFINAL (CODE)
	ljmp	__sdcc_program_startup
;--------------------------------------------------------
; Home
;--------------------------------------------------------
	.area HOME    (CODE)
	.area HOME    (CODE)
__sdcc_program_startup:
	lcall	_main
;	return from main will lock up
	sjmp .
;--------------------------------------------------------
; code
;--------------------------------------------------------
	.area CSEG    (CODE)
;------------------------------------------------------------
;Allocation info for local variables in function 'main'
;------------------------------------------------------------
;n                         Allocated to registers r2 
;------------------------------------------------------------
	G$main$0$0 ==.
	C$rauchmelder.c$27$0$0 ==.
;	rauchmelder.c:27: void main(void)
;	-----------------------------------------
;	 function main
;	-----------------------------------------
_main:
	ar2 = 0x02
	ar3 = 0x03
	ar4 = 0x04
	ar5 = 0x05
	ar6 = 0x06
	ar7 = 0x07
	ar0 = 0x00
	ar1 = 0x01
	C$rauchmelder.c$32$1$1 ==.
;	rauchmelder.c:32: restart_hw();				// Hardware zuruecksetzen
	lcall	_restart_hw
	C$rauchmelder.c$34$1$1 ==.
;	rauchmelder.c:34: for (n=0;n<50;n++) {		// Warten bis Bus stabil, nach Busspannungswiederkehr
	mov	r2,#0x00
00126$:
	cjne	r2,#0x32,00161$
00161$:
	jnc	00129$
	C$rauchmelder.c$35$2$2 ==.
;	rauchmelder.c:35: TR0=0;					// Timer 0 anhalten
	clr	_TCON_4
	C$rauchmelder.c$36$2$2 ==.
;	rauchmelder.c:36: TH0=eeprom[ADDRTAB+1];	// Timer 0 setzen mit phys. Adr. damit Geräte unterschiedlich beginnen zu senden
	mov	dptr,#(_eeprom + 0x0017)
	clr	a
	movc	a,@a+dptr
	mov	_TH0,a
	C$rauchmelder.c$37$2$2 ==.
;	rauchmelder.c:37: TL0=eeprom[ADDRTAB+2];
	mov	dptr,#(_eeprom + 0x0018)
	clr	a
	movc	a,@a+dptr
	mov	_TL0,a
	C$rauchmelder.c$38$2$2 ==.
;	rauchmelder.c:38: TF0=0;					// Überlauf-Flag zurücksetzen
	clr	_TCON_5
	C$rauchmelder.c$39$2$2 ==.
;	rauchmelder.c:39: TR0=1;					// Timer 0 starten
	setb	_TCON_4
	C$rauchmelder.c$40$2$2 ==.
;	rauchmelder.c:40: while(!TF0);
00101$:
	jnb	_TCON_5,00101$
	C$rauchmelder.c$34$1$1 ==.
;	rauchmelder.c:34: for (n=0;n<50;n++) {		// Warten bis Bus stabil, nach Busspannungswiederkehr
	inc	r2
	sjmp	00126$
00129$:
	C$rauchmelder.c$42$1$1 ==.
;	rauchmelder.c:42: restart_app();				// Anwendungsspezifische Einstellungen zuruecksetzen
	lcall	_restart_app
	C$rauchmelder.c$45$1$1 ==.
;	rauchmelder.c:45: do  {
00123$:
	C$rauchmelder.c$46$2$3 ==.
;	rauchmelder.c:46: if(APPLICATION_RUN) {	// nur wenn run-mode gesetzt
	mov	dptr,#(_eeprom + 0x000d)
	clr	a
	movc	a,@a+dptr
	mov	r2,a
	cjne	r2,#0xFF,00112$
	jb	_connected,00112$
	C$rauchmelder.c$48$3$4 ==.
;	rauchmelder.c:48: if (event) {				// wenn Rauchmelder etwas gesendet hat
	jnb	_event,00112$
	C$rauchmelder.c$49$4$5 ==.
;	rauchmelder.c:49: if (alarm != alarm_obj && !fernalarm) {	// wenn Alarm aber keine Fernauslösung vorliegt
	mov	c,_alarm
	jb	_alarm_obj,00168$
	cpl	c
00168$:
	jc	00105$
	jb	_fernalarm,00105$
	C$rauchmelder.c$50$5$6 ==.
;	rauchmelder.c:50: send_obj_value(0);					// Telegramm senden
	mov	dpl,#0x00
	lcall	_send_obj_value
	C$rauchmelder.c$51$5$6 ==.
;	rauchmelder.c:51: alarm_obj = alarm;					// Objektwert setzen
	mov	c,_alarm
	mov	_alarm_obj,c
00105$:
	C$rauchmelder.c$53$4$5 ==.
;	rauchmelder.c:53: if (stoerung != stoerung_obj) {			// bei Störung
	mov	c,_stoerung
	jb	_stoerung_obj,00171$
	cpl	c
00171$:
	jc	00108$
	C$rauchmelder.c$54$5$7 ==.
;	rauchmelder.c:54: send_obj_value(1);					// Telegramm senden
	mov	dpl,#0x01
	lcall	_send_obj_value
	C$rauchmelder.c$55$5$7 ==.
;	rauchmelder.c:55: stoerung_obj = stoerung;			// Objektwert setzen
	mov	c,_stoerung
	mov	_stoerung_obj,c
00108$:
	C$rauchmelder.c$57$4$5 ==.
;	rauchmelder.c:57: event=0;	// Ereignismelder zurücksetzen
	clr	_event
00112$:
	C$rauchmelder.c$61$2$3 ==.
;	rauchmelder.c:61: if(tel_arrived) process_tel();		// empfangenes Telegramm abarbeiten
	jnb	_tel_arrived,00115$
	lcall	_process_tel
00115$:
	C$rauchmelder.c$63$2$3 ==.
;	rauchmelder.c:63: if(RTCCON>=0x80) delay_timer();		// Realtime clock Ueberlauf
	mov	a,#0x100 - 0x80
	add	a,_RTCCON
	jnc	00117$
	lcall	_delay_timer
00117$:
	C$rauchmelder.c$67$2$3 ==.
;	rauchmelder.c:67: TASTER=1;					// Pin als Eingang schalten um Taster abzufragen
	setb	_P1_7
	C$rauchmelder.c$68$2$3 ==.
;	rauchmelder.c:68: if(!TASTER) {				// Taster gedrückt
	jb	_P1_7,00122$
	C$rauchmelder.c$69$1$1 ==.
;	rauchmelder.c:69: for(n=0;n<100;n++) {}	// Entprell-Zeit
	mov	r2,#0x64
00132$:
	djnz	r2,00132$
	C$rauchmelder.c$70$3$8 ==.
;	rauchmelder.c:70: while(!TASTER);			// warten bis Taster losgelassen
00118$:
	jnb	_P1_7,00118$
	C$rauchmelder.c$71$3$8 ==.
;	rauchmelder.c:71: status60^=0x81;			// Prog-Bit und Parity-Bit im system_state toggeln
	xrl	_status60,#0x81
00122$:
	C$rauchmelder.c$73$2$3 ==.
;	rauchmelder.c:73: TASTER=!(status60 & 0x01);	// LED entsprechend Prog-Bit schalten (low=LED an)
	mov	a,_status60
	anl	a,#0x01
	mov	r2,a
	cjne	a,#0x01,00179$
00179$:
	mov	_P1_7,c
	C$rauchmelder.c$74$1$1 ==.
;	rauchmelder.c:74: for(n=0;n<100;n++) {}		// falls Hauptroutine keine Zeit verbraucht, der LED etwas Zeit geben, damit sie auch leuchten kann
	mov	r2,#0x64
00135$:
	djnz	r2,00135$
	C$rauchmelder.c$75$1$1 ==.
;	rauchmelder.c:75: } while(1);
	C$rauchmelder.c$76$1$1 ==.
	XG$main$0$0 ==.
	sjmp	00123$
	.area CSEG    (CODE)
	.area CONST   (CODE)
	.area XINIT   (CODE)
	.area CABS    (ABS,CODE)
